target datalayout = "e-m:e-p270:32:32-p271:32:32-p272:64:64-i64:64-i128:128-f80:128-n8:16:32:64-S128"
target triple = "x86_64-pc-linux-gnu"

%struct.point_t = type { float, float }

; Function Attrs: nounwind uwtable
define dso_local void @draw_line(ptr noundef %0, <2 x float> %1, <2 x float> %2) #3 {
  %4 = alloca %struct.point_t, align 4
  %5 = alloca %struct.point_t, align 4
  %6 = alloca ptr, align 8
  store <2 x float> %1, ptr %4, align 4
  store <2 x float> %2, ptr %5, align 4
  store ptr %0, ptr %6, align 8, !tbaa !7
  %7 = load ptr, ptr %6, align 8, !tbaa !7
  %8 = getelementptr inbounds nuw %struct.point_t, ptr %4, i32 0, i32 0
  %9 = load float, ptr %8, align 4, !tbaa !16
  %10 = fpext reassoc nsz arcp contract afn float %9 to double
  %11 = getelementptr inbounds nuw %struct.point_t, ptr %4, i32 0, i32 1
  %12 = load float, ptr %11, align 4, !tbaa !19
  %13 = fpext reassoc nsz arcp contract afn float %12 to double
  call void @cairo_move_to(ptr noundef %7, double noundef %10, double noundef %13)
  %14 = load ptr, ptr %6, align 8, !tbaa !7
  %15 = getelementptr inbounds nuw %struct.point_t, ptr %5, i32 0, i32 0
  %16 = load float, ptr %15, align 4, !tbaa !16
  %17 = fpext reassoc nsz arcp contract afn float %16 to double
  %18 = getelementptr inbounds nuw %struct.point_t, ptr %5, i32 0, i32 1
  %19 = load float, ptr %18, align 4, !tbaa !19
  %20 = fpext reassoc nsz arcp contract afn float %19 to double
  call void @cairo_line_to(ptr noundef %14, double noundef %17, double noundef %20)
  ret void
}

; Function Attrs: nounwind uwtable
define dso_local void @draw_boundingbox(ptr noundef %0, ptr noundef %1) #3 {
  %3 = alloca ptr, align 8
  %4 = alloca ptr, align 8
  %5 = alloca i32, align 4
  store ptr %0, ptr %3, align 8, !tbaa !7
  store ptr %1, ptr %4, align 8, !tbaa !36
  call void @llvm.lifetime.start.p0(i64 4, ptr %5) #11
  store i32 0, ptr %5, align 4, !tbaa !14
  br label %6

6:                                                ; preds = %24, %2
  %7 = load i32, ptr %5, align 4, !tbaa !14
  %8 = icmp slt i32 %7, 4
  br i1 %8, label %10, label %9

9:                                                ; preds = %6
  call void @llvm.lifetime.end.p0(i64 4, ptr %5) #11
  br label %27

10:                                               ; preds = %6
  %11 = load ptr, ptr %3, align 8, !tbaa !7
  %12 = load ptr, ptr %4, align 8, !tbaa !36
  %13 = load i32, ptr %5, align 4, !tbaa !14
  %14 = sext i32 %13 to i64
  %15 = getelementptr inbounds %struct.point_t, ptr %12, i64 %14
  %16 = load ptr, ptr %4, align 8, !tbaa !36
  %17 = load i32, ptr %5, align 4, !tbaa !14
  %18 = add nsw i32 %17, 1
  %19 = srem i32 %18, 4
  %20 = sext i32 %19 to i64
  %21 = getelementptr inbounds %struct.point_t, ptr %16, i64 %20
  %22 = load <2 x float>, ptr %15, align 4
  %23 = load <2 x float>, ptr %21, align 4
  call void @draw_line(ptr noundef %11, <2 x float> %22, <2 x float> %23)
  br label %24

24:                                               ; preds = %10
  %25 = load i32, ptr %5, align 4, !tbaa !14
  %26 = add nsw i32 %25, 1
  store i32 %26, ptr %5, align 4, !tbaa !14
  br label %6

27:                                               ; preds = %9
  ret void
}