; Function Attrs: nounwind uwtable
define dso_local void @draw_boundingbox(ptr noundef %0, ptr noundef readonly captures(none) %1) local_unnamed_addr #3 {
  br label %4

3:                                                ; preds = %4
  ret void

4:                                                ; preds = %2, %4
  %indvars.iv = phi i64 [ 0, %2 ], [ %indvars.iv.next, %4 ]
  %5 = getelementptr inbounds nuw %struct.point_t, ptr %1, i64 %indvars.iv
  %indvars.iv.next = add nuw nsw i64 %indvars.iv, 1
  %6 = and i64 %indvars.iv.next, 3
  %7 = getelementptr inbounds nuw %struct.point_t, ptr %1, i64 %6
  %8 = load <2 x float>, ptr %5, align 4
  %9 = load <2 x float>, ptr %7, align 4
  %.sroa.02.0.vec.extract.i = extractelement <2 x float> %8, i64 0
  %10 = fpext reassoc nsz arcp contract afn float %.sroa.02.0.vec.extract.i to double
  %.sroa.02.4.vec.extract.i = extractelement <2 x float> %8, i64 1
  %11 = fpext reassoc nsz arcp contract afn float %.sroa.02.4.vec.extract.i to double
  tail call void @cairo_move_to(ptr noundef %0, double noundef %10, double noundef %11) #8
  %.sroa.0.0.vec.extract.i = extractelement <2 x float> %9, i64 0
  %12 = fpext reassoc nsz arcp contract afn float %.sroa.0.0.vec.extract.i to double
  %.sroa.0.4.vec.extract.i = extractelement <2 x float> %9, i64 1
  %13 = fpext reassoc nsz arcp contract afn float %.sroa.0.4.vec.extract.i to double
  tail call void @cairo_line_to(ptr noundef %0, double noundef %12, double noundef %13) #8
  %exitcond.not = icmp eq i64 %indvars.iv.next, 4
  br i1 %exitcond.not, label %3, label %4
}